; Function Attrs: nounwind uwtable
define range(i32 -1, 1) i32 @__redisAppendCommand(ptr noundef captures(none) %0, ptr noundef %1, i64 noundef %2) local_unnamed_addr #0 {
  %4 = getelementptr inbounds nuw i8, ptr %0, i64 152
  %5 = load ptr, ptr %4, align 8, !tbaa !43
  %6 = tail call ptr @hi_sdscatlen(ptr noundef %5, ptr noundef %1, i64 noundef %2) #13
  %7 = icmp eq ptr %6, null
  br i1 %7, label %8, label %12

8:                                                ; preds = %3
  %9 = getelementptr inbounds nuw i8, ptr %0, i64 8
  store i32 5, ptr %9, align 8, !tbaa !32
  %10 = getelementptr inbounds nuw i8, ptr %0, i64 12
  tail call void @llvm.memcpy.p0.p0.i64(ptr noundef nonnull align 4 dereferenceable(13) %10, ptr noundef nonnull align 1 dereferenceable(13) @.str.7, i64 13, i1 false)
  %11 = getelementptr inbounds nuw i8, ptr %0, i64 25
  store i8 0, ptr %11, align 1, !tbaa !22
  br label %13

12:                                               ; preds = %3
  store ptr %6, ptr %4, align 8, !tbaa !43
  br label %13

13:                                               ; preds = %12, %8
  %.0 = phi i32 [ -1, %8 ], [ 0, %12 ]
  ret i32 %.0
}